c__builtin__
set
p0
((lp1
S'http://cq.lianjia.com/chengjiao/CQNA92066863.html'
p2
aS'http://cq.lianjia.com/chengjiao/CQNA92065595.html'
p3
aS'http://cq.lianjia.com/chengjiao/CQSP92376548.html'
p4
aS'http://cq.lianjia.com/chengjiao/CQYB92224798.html'
p5
atp6
Rp7
.